target datalayout = "e-m:e-p270:32:32-p271:32:32-p272:64:64-i64:64-i128:128-f80:128-n8:16:32:64-S128"
target triple = "x86_64-pc-linux-gnu"

%struct.ocsp_basic_response_st = type { %struct.ocsp_response_data_st, %struct.X509_algor_st, ptr, ptr }
%struct.ocsp_response_data_st = type { ptr, %struct.ocsp_responder_id_st, ptr, ptr, ptr }
%struct.ocsp_responder_id_st = type { i32, %union.anon }
%union.anon = type { ptr }
%struct.X509_algor_st = type { ptr, ptr }
%struct.ocsp_request_st = type { %struct.ocsp_req_info_st, ptr }
%struct.ocsp_req_info_st = type { ptr, ptr, ptr, ptr }
%struct.ocsp_signature_st = type { %struct.X509_algor_st, ptr, ptr }
%struct.x509_st = type { %struct.x509_cinf_st, %struct.X509_algor_st, %struct.asn1_string_st, %struct.x509_sig_info_st, %struct.CRYPTO_REF_COUNT, %struct.crypto_ex_data_st, i64, i64, i32, i32, i32, i32, ptr, ptr, ptr, ptr, ptr, ptr, ptr, ptr, [20 x i8], ptr, ptr, i32, ptr, ptr, ptr }
%struct.x509_cinf_st = type { ptr, %struct.asn1_string_st, %struct.X509_algor_st, ptr, %struct.X509_val_st, ptr, ptr, ptr, ptr, ptr, %struct.ASN1_ENCODING_st }
%struct.X509_val_st = type { ptr, ptr }
%struct.ASN1_ENCODING_st = type { ptr, i64, i32 }
%struct.asn1_string_st = type { i32, i32, ptr, i64 }
%struct.x509_sig_info_st = type { i32, i32, i32, i32 }
%struct.CRYPTO_REF_COUNT = type { i32 }
%struct.crypto_ex_data_st = type { ptr, ptr }

@.str = private unnamed_addr constant [34 x i8] c"../openssl/crypto/ocsp/ocsp_vfy.c\00", align 1
@__func__.ocsp_verify = private unnamed_addr constant [12 x i8] c"ocsp_verify\00", align 1

; Function Attrs: nounwind uwtable
define internal i32 @ocsp_verify(ptr noundef %0, ptr noundef %1, ptr noundef %2, i64 noundef %3) #0 {
  %5 = alloca i32, align 4
  %6 = alloca ptr, align 8
  %7 = alloca ptr, align 8
  %8 = alloca ptr, align 8
  %9 = alloca i64, align 8
  %10 = alloca ptr, align 8
  %11 = alloca i32, align 4
  %12 = alloca i32, align 4
  store ptr %0, ptr %6, align 8, !tbaa !32
  store ptr %1, ptr %7, align 8, !tbaa !3
  store ptr %2, ptr %8, align 8, !tbaa !16
  store i64 %3, ptr %9, align 8, !tbaa !12
  call void @llvm.lifetime.start.p0(i64 8, ptr %10) #5
  call void @llvm.lifetime.start.p0(i64 4, ptr %11) #5
  store i32 1, ptr %11, align 4, !tbaa !14
  %13 = load i64, ptr %9, align 8, !tbaa !12
  %14 = and i64 %13, 4
  %15 = icmp eq i64 %14, 0
  br i1 %15, label %16, label %67

16:                                               ; preds = %4
  %17 = load ptr, ptr %8, align 8, !tbaa !16
  %18 = call ptr @X509_get0_pubkey(ptr noundef %17)
  store ptr %18, ptr %10, align 8, !tbaa !34
  %19 = icmp eq ptr %18, null
  br i1 %19, label %20, label %21

20:                                               ; preds = %16
  call void @ERR_new()
  call void @ERR_set_debug(ptr noundef @.str, i32 noundef 84, ptr noundef @__func__.ocsp_verify)
  call void (i32, i32, ptr, ...) @ERR_set_error(i32 noundef 39, i32 noundef 130, ptr noundef null)
  store i32 -1, ptr %5, align 4
  store i32 1, ptr %12, align 4
  br label %69

21:                                               ; preds = %16
  %22 = load ptr, ptr %6, align 8, !tbaa !32
  %23 = icmp ne ptr %22, null
  br i1 %23, label %24, label %45

24:                                               ; preds = %21
  %25 = call ptr @OCSP_REQINFO_it()
  %26 = load ptr, ptr %6, align 8, !tbaa !32
  %27 = getelementptr inbounds nuw %struct.ocsp_request_st, ptr %26, i32 0, i32 1
  %28 = load ptr, ptr %27, align 8, !tbaa !36
  %29 = getelementptr inbounds nuw %struct.ocsp_signature_st, ptr %28, i32 0, i32 0
  %30 = load ptr, ptr %6, align 8, !tbaa !32
  %31 = getelementptr inbounds nuw %struct.ocsp_request_st, ptr %30, i32 0, i32 1
  %32 = load ptr, ptr %31, align 8, !tbaa !36
  %33 = getelementptr inbounds nuw %struct.ocsp_signature_st, ptr %32, i32 0, i32 1
  %34 = load ptr, ptr %33, align 8, !tbaa !42
  %35 = load ptr, ptr %6, align 8, !tbaa !32
  %36 = getelementptr inbounds nuw %struct.ocsp_request_st, ptr %35, i32 0, i32 0
  %37 = load ptr, ptr %10, align 8, !tbaa !34
  %38 = load ptr, ptr %8, align 8, !tbaa !16
  %39 = getelementptr inbounds nuw %struct.x509_st, ptr %38, i32 0, i32 25
  %40 = load ptr, ptr %39, align 8, !tbaa !44
  %41 = load ptr, ptr %8, align 8, !tbaa !16
  %42 = getelementptr inbounds nuw %struct.x509_st, ptr %41, i32 0, i32 26
  %43 = load ptr, ptr %42, align 8, !tbaa !66
  %44 = call i32 @ASN1_item_verify_ex(ptr noundef %25, ptr noundef %29, ptr noundef %34, ptr noundef %36, ptr noundef null, ptr noundef %37, ptr noundef %40, ptr noundef %43)
  store i32 %44, ptr %11, align 4, !tbaa !14
  br label %62

45:                                               ; preds = %21
  %46 = call ptr @OCSP_RESPDATA_it()
  %47 = load ptr, ptr %7, align 8, !tbaa !3
  %48 = getelementptr inbounds nuw %struct.ocsp_basic_response_st, ptr %47, i32 0, i32 1
  %49 = load ptr, ptr %7, align 8, !tbaa !3
  %50 = getelementptr inbounds nuw %struct.ocsp_basic_response_st, ptr %49, i32 0, i32 2
  %51 = load ptr, ptr %50, align 8, !tbaa !67
  %52 = load ptr, ptr %7, align 8, !tbaa !3
  %53 = getelementptr inbounds nuw %struct.ocsp_basic_response_st, ptr %52, i32 0, i32 0
  %54 = load ptr, ptr %10, align 8, !tbaa !34
  %55 = load ptr, ptr %8, align 8, !tbaa !16
  %56 = getelementptr inbounds nuw %struct.x509_st, ptr %55, i32 0, i32 25
  %57 = load ptr, ptr %56, align 8, !tbaa !44
  %58 = load ptr, ptr %8, align 8, !tbaa !16
  %59 = getelementptr inbounds nuw %struct.x509_st, ptr %58, i32 0, i32 26
  %60 = load ptr, ptr %59, align 8, !tbaa !66
  %61 = call i32 @ASN1_item_verify_ex(ptr noundef %46, ptr noundef %48, ptr noundef %51, ptr noundef %53, ptr noundef null, ptr noundef %54, ptr noundef %57, ptr noundef %60)
  store i32 %61, ptr %11, align 4, !tbaa !14
  br label %62

62:                                               ; preds = %45, %24
  %63 = load i32, ptr %11, align 4, !tbaa !14
  %64 = icmp sle i32 %63, 0
  br i1 %64, label %65, label %66

65:                                               ; preds = %62
  call void @ERR_new()
  call void @ERR_set_debug(ptr noundef @.str, i32 noundef 92, ptr noundef @__func__.ocsp_verify)
  call void (i32, i32, ptr, ...) @ERR_set_error(i32 noundef 39, i32 noundef 117, ptr noundef null)
  br label %66

66:                                               ; preds = %65, %62
  br label %67

67:                                               ; preds = %66, %4
  %68 = load i32, ptr %11, align 4, !tbaa !14
  store i32 %68, ptr %5, align 4
  store i32 1, ptr %12, align 4
  br label %69

69:                                               ; preds = %67, %20
  call void @llvm.lifetime.end.p0(i64 4, ptr %11) #5
  call void @llvm.lifetime.end.p0(i64 8, ptr %10) #5
  %70 = load i32, ptr %5, align 4
  ret i32 %70
}