; Function Attrs: nounwind uwtable
define internal fastcc i32 @ocsp_verify(ptr noundef %0, ptr noundef %1, ptr noundef %2, i64 noundef %3) unnamed_addr #0 {
  %5 = and i64 %3, 4
  %6 = icmp eq i64 %5, 0
  br i1 %6, label %7, label %34

7:                                                ; preds = %4
  %8 = tail call ptr @X509_get0_pubkey(ptr noundef %2) #4
  %9 = icmp eq ptr %8, null
  br i1 %9, label %.sink.split, label %10

10:                                               ; preds = %7
  %.not = icmp eq ptr %0, null
  br i1 %.not, label %22, label %11

11:                                               ; preds = %10
  %12 = tail call ptr @OCSP_REQINFO_it() #4
  %13 = getelementptr inbounds nuw i8, ptr %0, i64 32
  %14 = load ptr, ptr %13, align 8, !tbaa !31
  %15 = getelementptr inbounds nuw i8, ptr %14, i64 16
  %16 = load ptr, ptr %15, align 8, !tbaa !37
  %17 = getelementptr inbounds nuw i8, ptr %2, i64 368
  %18 = load ptr, ptr %17, align 8, !tbaa !39
  %19 = getelementptr inbounds nuw i8, ptr %2, i64 376
  %20 = load ptr, ptr %19, align 8, !tbaa !59
  %21 = tail call i32 @ASN1_item_verify_ex(ptr noundef %12, ptr noundef %14, ptr noundef %16, ptr noundef nonnull %0, ptr noundef null, ptr noundef nonnull %8, ptr noundef %18, ptr noundef %20) #4
  br label %32

22:                                               ; preds = %10
  %23 = tail call ptr @OCSP_RESPDATA_it() #4
  %24 = getelementptr inbounds nuw i8, ptr %1, i64 48
  %25 = getelementptr inbounds nuw i8, ptr %1, i64 64
  %26 = load ptr, ptr %25, align 8, !tbaa !60
  %27 = getelementptr inbounds nuw i8, ptr %2, i64 368
  %28 = load ptr, ptr %27, align 8, !tbaa !39
  %29 = getelementptr inbounds nuw i8, ptr %2, i64 376
  %30 = load ptr, ptr %29, align 8, !tbaa !59
  %31 = tail call i32 @ASN1_item_verify_ex(ptr noundef %23, ptr noundef nonnull %24, ptr noundef %26, ptr noundef %1, ptr noundef null, ptr noundef nonnull %8, ptr noundef %28, ptr noundef %30) #4
  br label %32

32:                                               ; preds = %22, %11
  %.1 = phi i32 [ %21, %11 ], [ %31, %22 ]
  %33 = icmp slt i32 %.1, 1
  br i1 %33, label %.sink.split, label %34

.sink.split:                                      ; preds = %32, %7
  %.sink20 = phi i32 [ 84, %7 ], [ 92, %32 ]
  %.sink = phi i32 [ 130, %7 ], [ 117, %32 ]
  %.017.ph = phi i32 [ -1, %7 ], [ %.1, %32 ]
  tail call void @ERR_new() #4
  tail call void @ERR_set_debug(ptr noundef nonnull @.str, i32 noundef %.sink20, ptr noundef nonnull @__func__.ocsp_verify) #4
  tail call void (i32, i32, ptr, ...) @ERR_set_error(i32 noundef 39, i32 noundef %.sink, ptr noundef null) #4
  br label %34

34:                                               ; preds = %.sink.split, %4, %32
  %.017 = phi i32 [ %.1, %32 ], [ 1, %4 ], [ %.017.ph, %.sink.split ]
  ret i32 %.017
}